target datalayout = "e-m:e-p270:32:32-p271:32:32-p272:64:64-i64:64-i128:128-f80:128-n8:16:32:64-S128"
target triple = "x86_64-pc-linux-gnu"

%struct.AVRational = type { i32, i32 }
%struct.MOVAtom = type { i32, i64 }
%struct.MOVContext = type { ptr, ptr, i32, i64, i32, i32, i32, i32, i32, i32, ptr, i32, ptr, ptr, i32, %struct.MOVFragment, ptr, i32, i32, i32, ptr, i32, i32, i32, i32, i32, i32, i32, i64, i32, i32, ptr, i32, i32, i32, i32, i32, %struct.MOVFragmentIndex, i32, i32, [20 x i8], [20 x i8], ptr, i32, ptr, i32, ptr, i32, ptr, i32, ptr, ptr, i32, i32, [3 x [3 x i32]], i32, i32, i32, i32, i32, ptr, i32, ptr, i32, i32, i64, i32 }
%struct.MOVFragment = type { i32, i32, i64, i64, i64, i32, i32, i32, i32 }
%struct.MOVFragmentIndex = type { i32, i32, i32, i32, ptr }
%struct.AVFormatContext = type { ptr, ptr, ptr, ptr, ptr, i32, i32, ptr, i32, ptr, i32, ptr, ptr, i64, i64, i64, i32, i32, i32, i64, i64, ptr, i32, i32, ptr, i32, i32, i32, i32, ptr, i64, i32, i32, %struct.AVIOInterruptCB, i32, i32, i32, i32, i64, i32, i32, i32, i32, i32, i32, i32, i32, i32, i32, i32, i32, i64, i32, i32, i32, i32, i32, ptr, ptr, ptr, ptr, i32, ptr, ptr, ptr, ptr, i32, ptr, ptr, i64, ptr, ptr, ptr, i64 }
%struct.AVIOInterruptCB = type { ptr, ptr }
%struct.AVStream = type { ptr, i32, i32, ptr, ptr, %struct.AVRational, i64, i64, i64, i32, i32, %struct.AVRational, ptr, %struct.AVRational, %struct.AVPacket, i32, %struct.AVRational, i32 }
%struct.AVPacket = type { ptr, i64, i64, ptr, i32, i32, i32, ptr, i32, i64, i64, ptr, ptr, %struct.AVRational }
%struct.MOVStreamContext = type { ptr, i32, i32, i32, i32, i32, i32, ptr, i32, i32, ptr, i32, i32, ptr, i32, ptr, i32, i32, ptr, i32, ptr, i32, i32, i32, ptr, ptr, i32, i32, i32, i32, i32, i32, ptr, i32, i32, ptr, i32, i64, i64, i32, i64, ptr, ptr, i32, i32, i32, i32, i16, i32, ptr, i32, i32, i32, i32, i32, i32, i32, i32, i32, [256 x i32], i32, i64, i32, i8, i64, i32, i32, ptr, i32, ptr, ptr, i32, ptr, i32, ptr, i32, i32, i32, i64, ptr, ptr, i32, i32, i32, ptr, ptr, i64, ptr, i64, ptr, i64, ptr, i64, ptr, i64, i32, i32, %struct.anon, ptr, i32 }
%struct.anon = type { ptr, ptr, i32, ptr, ptr }
%struct.AVMasteringDisplayMetadata = type { [3 x [2 x %struct.AVRational]], [2 x %struct.AVRational], %struct.AVRational, %struct.AVRational, i32, i32 }

@__const.mov_read_mdcv.mapping = private unnamed_addr constant [3 x i32] [i32 1, i32 2, i32 0], align 4
@.str.320 = private unnamed_addr constant [44 x i8] c"Invalid Mastering Display Color Volume box\0A\00", align 1
@.str.321 = private unnamed_addr constant [51 x i8] c"Ignoring duplicate Mastering Display Color Volume\0A\00", align 1

; Function Attrs: inlinehint nounwind uwtable
define internal i64 @av_make_q(i32 noundef %0, i32 noundef %1) #8 {
  %3 = alloca %struct.AVRational, align 4
  %4 = alloca i32, align 4
  %5 = alloca i32, align 4
  store i32 %0, ptr %4, align 4, !tbaa !11
  store i32 %1, ptr %5, align 4, !tbaa !11
  %6 = getelementptr inbounds nuw %struct.AVRational, ptr %3, i32 0, i32 0
  %7 = load i32, ptr %4, align 4, !tbaa !11
  store i32 %7, ptr %6, align 4, !tbaa !286
  %8 = getelementptr inbounds nuw %struct.AVRational, ptr %3, i32 0, i32 1
  %9 = load i32, ptr %5, align 4, !tbaa !11
  store i32 %9, ptr %8, align 4, !tbaa !287
  %10 = load i64, ptr %3, align 4
  ret i64 %10
}

; Function Attrs: nounwind uwtable
define internal i32 @mov_read_mdcv(ptr noundef %0, ptr noundef %1, i32 %2, i64 %3) #0 {
  %5 = alloca i32, align 4
  %6 = alloca %struct.MOVAtom, align 8
  %7 = alloca ptr, align 8
  %8 = alloca ptr, align 8
  %9 = alloca ptr, align 8
  %10 = alloca [3 x i32], align 4
  %11 = alloca i32, align 4
  %12 = alloca i32, align 4
  %13 = alloca i32, align 4
  %14 = alloca i32, align 4
  %15 = alloca i32, align 4
  %16 = alloca %struct.AVRational, align 4
  %17 = alloca %struct.AVRational, align 4
  %18 = alloca %struct.AVRational, align 4
  %19 = alloca %struct.AVRational, align 4
  %20 = alloca %struct.AVRational, align 4
  %21 = alloca %struct.AVRational, align 4
  %22 = getelementptr inbounds nuw { i32, i64 }, ptr %6, i32 0, i32 0
  store i32 %2, ptr %22, align 8
  %23 = getelementptr inbounds nuw { i32, i64 }, ptr %6, i32 0, i32 1
  store i64 %3, ptr %23, align 8
  store ptr %0, ptr %7, align 8, !tbaa !4
  store ptr %1, ptr %8, align 8, !tbaa !9
  call void @llvm.lifetime.start.p0(i64 8, ptr %9) #14
  call void @llvm.lifetime.start.p0(i64 12, ptr %10) #14
  call void @llvm.memcpy.p0.p0.i64(ptr align 4 %10, ptr align 4 @__const.mov_read_mdcv.mapping, i64 12, i1 false)
  call void @llvm.lifetime.start.p0(i64 4, ptr %11) #14
  store i32 50000, ptr %11, align 4, !tbaa !11
  call void @llvm.lifetime.start.p0(i64 4, ptr %12) #14
  store i32 10000, ptr %12, align 4, !tbaa !11
  call void @llvm.lifetime.start.p0(i64 4, ptr %13) #14
  %24 = load ptr, ptr %7, align 8, !tbaa !4
  %25 = getelementptr inbounds nuw %struct.MOVContext, ptr %24, i32 0, i32 1
  %26 = load ptr, ptr %25, align 8, !tbaa !13
  %27 = getelementptr inbounds nuw %struct.AVFormatContext, ptr %26, i32 0, i32 6
  %28 = load i32, ptr %27, align 4, !tbaa !30
  %29 = icmp ult i32 %28, 1
  br i1 %29, label %30, label %31

30:                                               ; preds = %4
  store i32 -1094995529, ptr %5, align 4
  store i32 1, ptr %14, align 4
  br label %148

31:                                               ; preds = %4
  %32 = load ptr, ptr %7, align 8, !tbaa !4
  %33 = getelementptr inbounds nuw %struct.MOVContext, ptr %32, i32 0, i32 1
  %34 = load ptr, ptr %33, align 8, !tbaa !13
  %35 = getelementptr inbounds nuw %struct.AVFormatContext, ptr %34, i32 0, i32 7
  %36 = load ptr, ptr %35, align 8, !tbaa !41
  %37 = load ptr, ptr %7, align 8, !tbaa !4
  %38 = getelementptr inbounds nuw %struct.MOVContext, ptr %37, i32 0, i32 1
  %39 = load ptr, ptr %38, align 8, !tbaa !13
  %40 = getelementptr inbounds nuw %struct.AVFormatContext, ptr %39, i32 0, i32 6
  %41 = load i32, ptr %40, align 4, !tbaa !30
  %42 = sub i32 %41, 1
  %43 = zext i32 %42 to i64
  %44 = getelementptr inbounds nuw ptr, ptr %36, i64 %43
  %45 = load ptr, ptr %44, align 8, !tbaa !42
  %46 = getelementptr inbounds nuw %struct.AVStream, ptr %45, i32 0, i32 4
  %47 = load ptr, ptr %46, align 8, !tbaa !44
  store ptr %47, ptr %9, align 8, !tbaa !51
  %48 = getelementptr inbounds nuw %struct.MOVAtom, ptr %6, i32 0, i32 1
  %49 = load i64, ptr %48, align 8, !tbaa !58
  %50 = icmp slt i64 %49, 24
  br i1 %50, label %51, label %55

51:                                               ; preds = %31
  %52 = load ptr, ptr %7, align 8, !tbaa !4
  %53 = getelementptr inbounds nuw %struct.MOVContext, ptr %52, i32 0, i32 1
  %54 = load ptr, ptr %53, align 8, !tbaa !13
  call void (ptr, i32, ptr, ...) @av_log(ptr noundef %54, i32 noundef 16, ptr noundef @.str.320)
  store i32 -1094995529, ptr %5, align 4
  store i32 1, ptr %14, align 4
  br label %148

55:                                               ; preds = %31
  %56 = load ptr, ptr %9, align 8, !tbaa !51
  %57 = getelementptr inbounds nuw %struct.MOVStreamContext, ptr %56, i32 0, i32 89
  %58 = load ptr, ptr %57, align 8, !tbaa !201
  %59 = icmp ne ptr %58, null
  br i1 %59, label %60, label %64

60:                                               ; preds = %55
  %61 = load ptr, ptr %7, align 8, !tbaa !4
  %62 = getelementptr inbounds nuw %struct.MOVContext, ptr %61, i32 0, i32 1
  %63 = load ptr, ptr %62, align 8, !tbaa !13
  call void (ptr, i32, ptr, ...) @av_log(ptr noundef %63, i32 noundef 24, ptr noundef @.str.321)
  store i32 0, ptr %5, align 4
  store i32 1, ptr %14, align 4
  br label %148

64:                                               ; preds = %55
  %65 = load ptr, ptr %9, align 8, !tbaa !51
  %66 = getelementptr inbounds nuw %struct.MOVStreamContext, ptr %65, i32 0, i32 90
  %67 = call ptr @av_mastering_display_metadata_alloc_size(ptr noundef %66)
  %68 = load ptr, ptr %9, align 8, !tbaa !51
  %69 = getelementptr inbounds nuw %struct.MOVStreamContext, ptr %68, i32 0, i32 89
  store ptr %67, ptr %69, align 8, !tbaa !201
  %70 = load ptr, ptr %9, align 8, !tbaa !51
  %71 = getelementptr inbounds nuw %struct.MOVStreamContext, ptr %70, i32 0, i32 89
  %72 = load ptr, ptr %71, align 8, !tbaa !201
  %73 = icmp ne ptr %72, null
  br i1 %73, label %75, label %74

74:                                               ; preds = %64
  store i32 -12, ptr %5, align 4
  store i32 1, ptr %14, align 4
  br label %148

75:                                               ; preds = %64
  store i32 0, ptr %13, align 4, !tbaa !11
  br label %76

76:                                               ; preds = %106, %75
  %77 = load i32, ptr %13, align 4, !tbaa !11
  %78 = icmp slt i32 %77, 3
  br i1 %78, label %79, label %109

79:                                               ; preds = %76
  call void @llvm.lifetime.start.p0(i64 4, ptr %15) #14
  %80 = load i32, ptr %13, align 4, !tbaa !11
  %81 = sext i32 %80 to i64
  %82 = getelementptr inbounds [3 x i32], ptr %10, i64 0, i64 %81
  %83 = load i32, ptr %82, align 4, !tbaa !11
  store i32 %83, ptr %15, align 4, !tbaa !11
  %84 = load ptr, ptr %9, align 8, !tbaa !51
  %85 = getelementptr inbounds nuw %struct.MOVStreamContext, ptr %84, i32 0, i32 89
  %86 = load ptr, ptr %85, align 8, !tbaa !201
  %87 = getelementptr inbounds nuw %struct.AVMasteringDisplayMetadata, ptr %86, i32 0, i32 0
  %88 = load i32, ptr %15, align 4, !tbaa !11
  %89 = sext i32 %88 to i64
  %90 = getelementptr inbounds [3 x [2 x %struct.AVRational]], ptr %87, i64 0, i64 %89
  %91 = getelementptr inbounds [2 x %struct.AVRational], ptr %90, i64 0, i64 0
  call void @llvm.lifetime.start.p0(i64 8, ptr %16) #14
  %92 = load ptr, ptr %8, align 8, !tbaa !9
  %93 = call i32 @avio_rb16(ptr noundef %92)
  %94 = call i64 @av_make_q(i32 noundef %93, i32 noundef 50000)
  store i64 %94, ptr %16, align 4
  call void @llvm.memcpy.p0.p0.i64(ptr align 4 %91, ptr align 4 %16, i64 8, i1 false), !tbaa.struct !288
  call void @llvm.lifetime.end.p0(i64 8, ptr %16) #14
  %95 = load ptr, ptr %9, align 8, !tbaa !51
  %96 = getelementptr inbounds nuw %struct.MOVStreamContext, ptr %95, i32 0, i32 89
  %97 = load ptr, ptr %96, align 8, !tbaa !201
  %98 = getelementptr inbounds nuw %struct.AVMasteringDisplayMetadata, ptr %97, i32 0, i32 0
  %99 = load i32, ptr %15, align 4, !tbaa !11
  %100 = sext i32 %99 to i64
  %101 = getelementptr inbounds [3 x [2 x %struct.AVRational]], ptr %98, i64 0, i64 %100
  %102 = getelementptr inbounds [2 x %struct.AVRational], ptr %101, i64 0, i64 1
  call void @llvm.lifetime.start.p0(i64 8, ptr %17) #14
  %103 = load ptr, ptr %8, align 8, !tbaa !9
  %104 = call i32 @avio_rb16(ptr noundef %103)
  %105 = call i64 @av_make_q(i32 noundef %104, i32 noundef 50000)
  store i64 %105, ptr %17, align 4
  call void @llvm.memcpy.p0.p0.i64(ptr align 4 %102, ptr align 4 %17, i64 8, i1 false), !tbaa.struct !288
  call void @llvm.lifetime.end.p0(i64 8, ptr %17) #14
  call void @llvm.lifetime.end.p0(i64 4, ptr %15) #14
  br label %106

106:                                              ; preds = %79
  %107 = load i32, ptr %13, align 4, !tbaa !11
  %108 = add nsw i32 %107, 1
  store i32 %108, ptr %13, align 4, !tbaa !11
  br label %76, !llvm.loop !550

109:                                              ; preds = %76
  %110 = load ptr, ptr %9, align 8, !tbaa !51
  %111 = getelementptr inbounds nuw %struct.MOVStreamContext, ptr %110, i32 0, i32 89
  %112 = load ptr, ptr %111, align 8, !tbaa !201
  %113 = getelementptr inbounds nuw %struct.AVMasteringDisplayMetadata, ptr %112, i32 0, i32 1
  %114 = getelementptr inbounds [2 x %struct.AVRational], ptr %113, i64 0, i64 0
  call void @llvm.lifetime.start.p0(i64 8, ptr %18) #14
  %115 = load ptr, ptr %8, align 8, !tbaa !9
  %116 = call i32 @avio_rb16(ptr noundef %115)
  %117 = call i64 @av_make_q(i32 noundef %116, i32 noundef 50000)
  store i64 %117, ptr %18, align 4
  call void @llvm.memcpy.p0.p0.i64(ptr align 4 %114, ptr align 4 %18, i64 8, i1 false), !tbaa.struct !288
  call void @llvm.lifetime.end.p0(i64 8, ptr %18) #14
  %118 = load ptr, ptr %9, align 8, !tbaa !51
  %119 = getelementptr inbounds nuw %struct.MOVStreamContext, ptr %118, i32 0, i32 89
  %120 = load ptr, ptr %119, align 8, !tbaa !201
  %121 = getelementptr inbounds nuw %struct.AVMasteringDisplayMetadata, ptr %120, i32 0, i32 1
  %122 = getelementptr inbounds [2 x %struct.AVRational], ptr %121, i64 0, i64 1
  call void @llvm.lifetime.start.p0(i64 8, ptr %19) #14
  %123 = load ptr, ptr %8, align 8, !tbaa !9
  %124 = call i32 @avio_rb16(ptr noundef %123)
  %125 = call i64 @av_make_q(i32 noundef %124, i32 noundef 50000)
  store i64 %125, ptr %19, align 4
  call void @llvm.memcpy.p0.p0.i64(ptr align 4 %122, ptr align 4 %19, i64 8, i1 false), !tbaa.struct !288
  call void @llvm.lifetime.end.p0(i64 8, ptr %19) #14
  %126 = load ptr, ptr %9, align 8, !tbaa !51
  %127 = getelementptr inbounds nuw %struct.MOVStreamContext, ptr %126, i32 0, i32 89
  %128 = load ptr, ptr %127, align 8, !tbaa !201
  %129 = getelementptr inbounds nuw %struct.AVMasteringDisplayMetadata, ptr %128, i32 0, i32 3
  call void @llvm.lifetime.start.p0(i64 8, ptr %20) #14
  %130 = load ptr, ptr %8, align 8, !tbaa !9
  %131 = call i32 @avio_rb32(ptr noundef %130)
  %132 = call i64 @av_make_q(i32 noundef %131, i32 noundef 10000)
  store i64 %132, ptr %20, align 4
  call void @llvm.memcpy.p0.p0.i64(ptr align 4 %129, ptr align 4 %20, i64 8, i1 false), !tbaa.struct !288
  call void @llvm.lifetime.end.p0(i64 8, ptr %20) #14
  %133 = load ptr, ptr %9, align 8, !tbaa !51
  %134 = getelementptr inbounds nuw %struct.MOVStreamContext, ptr %133, i32 0, i32 89
  %135 = load ptr, ptr %134, align 8, !tbaa !201
  %136 = getelementptr inbounds nuw %struct.AVMasteringDisplayMetadata, ptr %135, i32 0, i32 2
  call void @llvm.lifetime.start.p0(i64 8, ptr %21) #14
  %137 = load ptr, ptr %8, align 8, !tbaa !9
  %138 = call i32 @avio_rb32(ptr noundef %137)
  %139 = call i64 @av_make_q(i32 noundef %138, i32 noundef 10000)
  store i64 %139, ptr %21, align 4
  call void @llvm.memcpy.p0.p0.i64(ptr align 4 %136, ptr align 4 %21, i64 8, i1 false), !tbaa.struct !288
  call void @llvm.lifetime.end.p0(i64 8, ptr %21) #14
  %140 = load ptr, ptr %9, align 8, !tbaa !51
  %141 = getelementptr inbounds nuw %struct.MOVStreamContext, ptr %140, i32 0, i32 89
  %142 = load ptr, ptr %141, align 8, !tbaa !201
  %143 = getelementptr inbounds nuw %struct.AVMasteringDisplayMetadata, ptr %142, i32 0, i32 5
  store i32 1, ptr %143, align 4, !tbaa !546
  %144 = load ptr, ptr %9, align 8, !tbaa !51
  %145 = getelementptr inbounds nuw %struct.MOVStreamContext, ptr %144, i32 0, i32 89
  %146 = load ptr, ptr %145, align 8, !tbaa !201
  %147 = getelementptr inbounds nuw %struct.AVMasteringDisplayMetadata, ptr %146, i32 0, i32 4
  store i32 1, ptr %147, align 4, !tbaa !544
  store i32 0, ptr %5, align 4
  store i32 1, ptr %14, align 4
  br label %148

148:                                              ; preds = %109, %74, %60, %51, %30
  call void @llvm.lifetime.end.p0(i64 4, ptr %13) #14
  call void @llvm.lifetime.end.p0(i64 4, ptr %12) #14
  call void @llvm.lifetime.end.p0(i64 4, ptr %11) #14
  call void @llvm.lifetime.end.p0(i64 12, ptr %10) #14
  call void @llvm.lifetime.end.p0(i64 8, ptr %9) #14
  %149 = load i32, ptr %5, align 4
  ret i32 %149
}