; Function Attrs: nounwind uwtable
define internal range(i32 -1094995529, 1) i32 @mov_read_mdcv(ptr noundef readonly captures(none) %0, ptr noundef %1, i32 %2, i64 %3) #0 {
  %5 = getelementptr inbounds nuw i8, ptr %0, i64 8
  %6 = load ptr, ptr %5, align 8, !tbaa !4
  %7 = getelementptr inbounds nuw i8, ptr %6, i64 44
  %8 = load i32, ptr %7, align 4, !tbaa !25
  %9 = icmp eq i32 %8, 0
  br i1 %9, label %53, label %10

10:                                               ; preds = %4
  %11 = getelementptr inbounds nuw i8, ptr %6, i64 48
  %12 = load ptr, ptr %11, align 8, !tbaa !37
  %13 = add i32 %8, -1
  %14 = zext i32 %13 to i64
  %15 = getelementptr inbounds nuw ptr, ptr %12, i64 %14
  %16 = load ptr, ptr %15, align 8, !tbaa !38
  %17 = getelementptr inbounds nuw i8, ptr %16, i64 24
  %18 = load ptr, ptr %17, align 8, !tbaa !40
  %19 = icmp slt i64 %3, 24
  br i1 %19, label %20, label %21

20:                                               ; preds = %10
  tail call void (ptr, i32, ptr, ...) @av_log(ptr noundef nonnull %6, i32 noundef 16, ptr noundef nonnull @.str.320) #16
  br label %53

21:                                               ; preds = %10
  %22 = getelementptr inbounds nuw i8, ptr %18, i64 1544
  %23 = load ptr, ptr %22, align 8, !tbaa !282
  %.not = icmp eq ptr %23, null
  br i1 %.not, label %25, label %24

24:                                               ; preds = %21
  tail call void (ptr, i32, ptr, ...) @av_log(ptr noundef nonnull %6, i32 noundef 24, ptr noundef nonnull @.str.321) #16
  br label %53

25:                                               ; preds = %21
  %26 = getelementptr inbounds nuw i8, ptr %18, i64 1552
  %27 = tail call ptr @av_mastering_display_metadata_alloc_size(ptr noundef nonnull %26) #16
  store ptr %27, ptr %22, align 8, !tbaa !282
  %.not36 = icmp eq ptr %27, null
  br i1 %.not36, label %53, label %.preheader

.preheader:                                       ; preds = %25, %.preheader
  %indvars.iv = phi i64 [ %indvars.iv.next, %.preheader ], [ 0, %25 ]
  %28 = getelementptr inbounds nuw [3 x i32], ptr @__const.mov_read_mdcv.mapping, i64 0, i64 %indvars.iv
  %29 = load i32, ptr %28, align 4, !tbaa !83
  %30 = load ptr, ptr %22, align 8, !tbaa !282
  %31 = sext i32 %29 to i64
  %32 = getelementptr inbounds [3 x [2 x %struct.AVRational]], ptr %30, i64 0, i64 %31
  %33 = tail call i32 @avio_rb16(ptr noundef %1) #16
  %.sroa.0.0.insert.ext.i = zext i32 %33 to i64
  %.sroa.0.0.insert.insert.i = or disjoint i64 %.sroa.0.0.insert.ext.i, 214748364800000
  store i64 %.sroa.0.0.insert.insert.i, ptr %32, align 4
  %34 = load ptr, ptr %22, align 8, !tbaa !282
  %35 = getelementptr inbounds [3 x [2 x %struct.AVRational]], ptr %34, i64 0, i64 %31, i64 1
  %36 = tail call i32 @avio_rb16(ptr noundef %1) #16
  %.sroa.0.0.insert.ext.i37 = zext i32 %36 to i64
  %.sroa.0.0.insert.insert.i38 = or disjoint i64 %.sroa.0.0.insert.ext.i37, 214748364800000
  store i64 %.sroa.0.0.insert.insert.i38, ptr %35, align 4
  %indvars.iv.next = add nuw nsw i64 %indvars.iv, 1
  %exitcond.not = icmp eq i64 %indvars.iv.next, 3
  br i1 %exitcond.not, label %37, label %.preheader, !llvm.loop !622

37:                                               ; preds = %.preheader
  %38 = load ptr, ptr %22, align 8, !tbaa !282
  %39 = getelementptr inbounds nuw i8, ptr %38, i64 48
  %40 = tail call i32 @avio_rb16(ptr noundef %1) #16
  %.sroa.0.0.insert.ext.i39 = zext i32 %40 to i64
  %.sroa.0.0.insert.insert.i40 = or disjoint i64 %.sroa.0.0.insert.ext.i39, 214748364800000
  store i64 %.sroa.0.0.insert.insert.i40, ptr %39, align 4
  %41 = load ptr, ptr %22, align 8, !tbaa !282
  %42 = getelementptr inbounds nuw i8, ptr %41, i64 56
  %43 = tail call i32 @avio_rb16(ptr noundef %1) #16
  %.sroa.0.0.insert.ext.i41 = zext i32 %43 to i64
  %.sroa.0.0.insert.insert.i42 = or disjoint i64 %.sroa.0.0.insert.ext.i41, 214748364800000
  store i64 %.sroa.0.0.insert.insert.i42, ptr %42, align 4
  %44 = load ptr, ptr %22, align 8, !tbaa !282
  %45 = getelementptr inbounds nuw i8, ptr %44, i64 72
  %46 = tail call i32 @avio_rb32(ptr noundef %1) #16
  %.sroa.0.0.insert.ext.i43 = zext i32 %46 to i64
  %.sroa.0.0.insert.insert.i44 = or disjoint i64 %.sroa.0.0.insert.ext.i43, 42949672960000
  store i64 %.sroa.0.0.insert.insert.i44, ptr %45, align 4
  %47 = load ptr, ptr %22, align 8, !tbaa !282
  %48 = getelementptr inbounds nuw i8, ptr %47, i64 64
  %49 = tail call i32 @avio_rb32(ptr noundef %1) #16
  %.sroa.0.0.insert.ext.i45 = zext i32 %49 to i64
  %.sroa.0.0.insert.insert.i46 = or disjoint i64 %.sroa.0.0.insert.ext.i45, 42949672960000
  store i64 %.sroa.0.0.insert.insert.i46, ptr %48, align 4
  %50 = load ptr, ptr %22, align 8, !tbaa !282
  %51 = getelementptr inbounds nuw i8, ptr %50, i64 84
  store i32 1, ptr %51, align 4, !tbaa !618
  %52 = getelementptr inbounds nuw i8, ptr %50, i64 80
  store i32 1, ptr %52, align 4, !tbaa !616
  br label %53

53:                                               ; preds = %25, %4, %37, %24, %20
  %.0 = phi i32 [ -1094995529, %20 ], [ 0, %24 ], [ 0, %37 ], [ -1094995529, %4 ], [ -12, %25 ]
  ret i32 %.0
}